; ModuleID = '34/345.c'
source_filename = "34/345.c"
target datalayout = "e-m:e-p270:32:32-p271:32:32-p272:64:64-i64:64-f80:128-n8:16:32:64-S128"
target triple = "x86_64-pc-linux-gnu"

@.str = private unnamed_addr constant [3 x i8] c"%d\00", align 1
@.str.1 = private unnamed_addr constant [11 x i8] c"%d*3+1=%d\0A\00", align 1
@.str.2 = private unnamed_addr constant [9 x i8] c"%d/2=%d\0A\00", align 1
@.str.3 = private unnamed_addr constant [4 x i8] c"End\00", align 1

; Function Attrs: noinline nounwind uwtable
define dso_local i32 @main() #0 {
  %1 = alloca i32, align 4
  %2 = alloca i32, align 4
  %3 = alloca i32, align 4
  %4 = alloca i32, align 4
  %5 = alloca i32, align 4
  store i32 0, i32* %1, align 4
  %6 = call i32 (i8*, ...) @__isoc99_scanf(i8* getelementptr inbounds ([3 x i8], [3 x i8]* @.str, i64 0, i64 0), i32* %2)
  store i32 1, i32* %3, align 4
  br label %7

7:                                                ; preds = %38, %0
  %8 = load i32, i32* %2, align 4
  %9 = icmp ne i32 %8, 1
  br i1 %9, label %10, label %41

10:                                               ; preds = %7
  %11 = load i32, i32* %2, align 4
  %12 = icmp ne i32 %11, 1
  br i1 %12, label %13, label %25

13:                                               ; preds = %10
  %14 = load i32, i32* %2, align 4
  %15 = srem i32 %14, 2
  %16 = icmp eq i32 %15, 1
  br i1 %16, label %17, label %25

17:                                               ; preds = %13
  %18 = load i32, i32* %2, align 4
  store i32 %18, i32* %4, align 4
  %19 = load i32, i32* %2, align 4
  %20 = mul nsw i32 %19, 3
  %21 = add nsw i32 %20, 1
  store i32 %21, i32* %2, align 4
  %22 = load i32, i32* %4, align 4
  %23 = load i32, i32* %2, align 4
  %24 = call i32 (i8*, ...) @printf(i8* getelementptr inbounds ([11 x i8], [11 x i8]* @.str.1, i64 0, i64 0), i32 %22, i32 %23)
  br label %37

25:                                               ; preds = %13, %10
  %26 = load i32, i32* %2, align 4
  %27 = srem i32 %26, 2
  %28 = icmp eq i32 %27, 0
  br i1 %28, label %29, label %36

29:                                               ; preds = %25
  %30 = load i32, i32* %2, align 4
  store i32 %30, i32* %5, align 4
  %31 = load i32, i32* %2, align 4
  %32 = sdiv i32 %31, 2
  store i32 %32, i32* %2, align 4
  %33 = load i32, i32* %5, align 4
  %34 = load i32, i32* %2, align 4
  %35 = call i32 (i8*, ...) @printf(i8* getelementptr inbounds ([9 x i8], [9 x i8]* @.str.2, i64 0, i64 0), i32 %33, i32 %34)
  br label %36

36:                                               ; preds = %29, %25
  br label %37

37:                                               ; preds = %36, %17
  br label %38

38:                                               ; preds = %37
  %39 = load i32, i32* %3, align 4
  %40 = add nsw i32 %39, 1
  store i32 %40, i32* %3, align 4
  br label %7

41:                                               ; preds = %7
  %42 = call i32 (i8*, ...) @printf(i8* getelementptr inbounds ([4 x i8], [4 x i8]* @.str.3, i64 0, i64 0))
  ret i32 0
}

declare dso_local i32 @__isoc99_scanf(i8*, ...) #1

declare dso_local i32 @printf(i8*, ...) #1


!llvm.module.flags = !{!0}
!llvm.ident = !{!1}

!0 = !{i32 1, !"wchar_size", i32 4}
!1 = !{!"clang version 10.0.0-4ubuntu1 "}
